target datalayout = "e-m:e-p270:32:32-p271:32:32-p272:64:64-i64:64-i128:128-f80:128-n8:16:32:64-S128"
target triple = "x86_64-pc-linux-gnu"

%struct.ref_iterator_vtable = type { ptr, ptr, ptr }
%struct.ref_iterator = type { ptr, ptr, ptr, ptr, i32 }
%struct.prefix_ref_iterator = type { %struct.ref_iterator, ptr, ptr, i32 }

@prefix_ref_iterator_vtable = internal global %struct.ref_iterator_vtable { ptr @prefix_ref_iterator_advance, ptr @prefix_ref_iterator_peel, ptr @prefix_ref_iterator_abort }, align 8

; Function Attrs: nounwind uwtable
define dso_local void @base_ref_iterator_init(ptr noundef %0, ptr noundef %1) #0 {
  %3 = alloca ptr, align 8
  %4 = alloca ptr, align 8
  store ptr %0, ptr %3, align 8, !tbaa !4
  store ptr %1, ptr %4, align 8, !tbaa !20
  %5 = load ptr, ptr %4, align 8, !tbaa !20
  %6 = load ptr, ptr %3, align 8, !tbaa !4
  %7 = getelementptr inbounds nuw %struct.ref_iterator, ptr %6, i32 0, i32 0
  store ptr %5, ptr %7, align 8, !tbaa !9
  %8 = load ptr, ptr %3, align 8, !tbaa !4
  %9 = getelementptr inbounds nuw %struct.ref_iterator, ptr %8, i32 0, i32 1
  store ptr null, ptr %9, align 8, !tbaa !21
  %10 = load ptr, ptr %3, align 8, !tbaa !4
  %11 = getelementptr inbounds nuw %struct.ref_iterator, ptr %10, i32 0, i32 2
  store ptr null, ptr %11, align 8, !tbaa !22
  %12 = load ptr, ptr %3, align 8, !tbaa !4
  %13 = getelementptr inbounds nuw %struct.ref_iterator, ptr %12, i32 0, i32 3
  store ptr null, ptr %13, align 8, !tbaa !23
  %14 = load ptr, ptr %3, align 8, !tbaa !4
  %15 = getelementptr inbounds nuw %struct.ref_iterator, ptr %14, i32 0, i32 4
  store i32 0, ptr %15, align 8, !tbaa !24
  ret void
}

; Function Attrs: nounwind uwtable
define dso_local ptr @prefix_ref_iterator_begin(ptr noundef %0, ptr noundef %1, i32 noundef %2) #0 {
  %4 = alloca ptr, align 8
  %5 = alloca ptr, align 8
  %6 = alloca ptr, align 8
  %7 = alloca i32, align 4
  %8 = alloca ptr, align 8
  %9 = alloca ptr, align 8
  %10 = alloca i32, align 4
  store ptr %0, ptr %5, align 8, !tbaa !4
  store ptr %1, ptr %6, align 8, !tbaa !38
  store i32 %2, ptr %7, align 4, !tbaa !28
  call void @llvm.lifetime.start.p0(i64 8, ptr %8) #6
  call void @llvm.lifetime.start.p0(i64 8, ptr %9) #6
  %11 = load ptr, ptr %6, align 8, !tbaa !38
  %12 = load i8, ptr %11, align 1, !tbaa !39
  %13 = icmp ne i8 %12, 0
  br i1 %13, label %19, label %14

14:                                               ; preds = %3
  %15 = load i32, ptr %7, align 4, !tbaa !28
  %16 = icmp ne i32 %15, 0
  br i1 %16, label %19, label %17

17:                                               ; preds = %14
  %18 = load ptr, ptr %5, align 8, !tbaa !4
  store ptr %18, ptr %4, align 8
  store i32 1, ptr %10, align 4
  br label %35

19:                                               ; preds = %14, %3
  %20 = call ptr @xcalloc(i64 noundef 1, i64 noundef 64)
  store ptr %20, ptr %8, align 8, !tbaa !40
  %21 = load ptr, ptr %8, align 8, !tbaa !40
  %22 = getelementptr inbounds nuw %struct.prefix_ref_iterator, ptr %21, i32 0, i32 0
  store ptr %22, ptr %9, align 8, !tbaa !4
  %23 = load ptr, ptr %9, align 8, !tbaa !4
  call void @base_ref_iterator_init(ptr noundef %23, ptr noundef @prefix_ref_iterator_vtable)
  %24 = load ptr, ptr %5, align 8, !tbaa !4
  %25 = load ptr, ptr %8, align 8, !tbaa !40
  %26 = getelementptr inbounds nuw %struct.prefix_ref_iterator, ptr %25, i32 0, i32 1
  store ptr %24, ptr %26, align 8, !tbaa !42
  %27 = load ptr, ptr %6, align 8, !tbaa !38
  %28 = call ptr @xstrdup(ptr noundef %27)
  %29 = load ptr, ptr %8, align 8, !tbaa !40
  %30 = getelementptr inbounds nuw %struct.prefix_ref_iterator, ptr %29, i32 0, i32 2
  store ptr %28, ptr %30, align 8, !tbaa !44
  %31 = load i32, ptr %7, align 4, !tbaa !28
  %32 = load ptr, ptr %8, align 8, !tbaa !40
  %33 = getelementptr inbounds nuw %struct.prefix_ref_iterator, ptr %32, i32 0, i32 3
  store i32 %31, ptr %33, align 8, !tbaa !45
  %34 = load ptr, ptr %9, align 8, !tbaa !4
  store ptr %34, ptr %4, align 8
  store i32 1, ptr %10, align 4
  br label %35

35:                                               ; preds = %19, %17
  call void @llvm.lifetime.end.p0(i64 8, ptr %9) #6
  call void @llvm.lifetime.end.p0(i64 8, ptr %8) #6
  %36 = load ptr, ptr %4, align 8
  ret ptr %36
}