; Function Attrs: nounwind uwtable
define dso_local noundef ptr @prefix_ref_iterator_begin(ptr noundef %0, ptr noundef %1, i32 noundef %2) local_unnamed_addr #0 {
  %4 = load i8, ptr %1, align 1, !tbaa !26
  %5 = icmp ne i8 %4, 0
  %6 = icmp ne i32 %2, 0
  %or.cond = or i1 %6, %5
  br i1 %or.cond, label %7, label %14

7:                                                ; preds = %3
  %8 = tail call ptr @xcalloc(i64 noundef 1, i64 noundef 64) #11
  store ptr @prefix_ref_iterator_vtable, ptr %8, align 8, !tbaa !4
  %9 = getelementptr inbounds nuw i8, ptr %8, i64 8
  tail call void @llvm.memset.p0.i64(ptr noundef nonnull align 8 dereferenceable(28) %9, i8 0, i64 28, i1 false)
  %10 = getelementptr inbounds nuw i8, ptr %8, i64 40
  store ptr %0, ptr %10, align 8, !tbaa !27
  %11 = tail call ptr @xstrdup(ptr noundef nonnull %1) #11
  %12 = getelementptr inbounds nuw i8, ptr %8, i64 48
  store ptr %11, ptr %12, align 8, !tbaa !29
  %13 = getelementptr inbounds nuw i8, ptr %8, i64 56
  store i32 %2, ptr %13, align 8, !tbaa !30
  br label %14

14:                                               ; preds = %3, %7
  %.0 = phi ptr [ %8, %7 ], [ %0, %3 ]
  ret ptr %.0
}